target datalayout = "e-m:e-p270:32:32-p271:32:32-p272:64:64-i64:64-i128:128-f80:128-n8:16:32:64-S128"
target triple = "x86_64-pc-linux-gnu"

%struct.WOLFSSL_BUFFER_INFO = type { ptr, i32 }
%struct.WOLFSSL = type <{ ptr, ptr, ptr, ptr, [48 x i8], [48 x i8], ptr, ptr, ptr, ptr, ptr, ptr, ptr, ptr, ptr, ptr, ptr, ptr, ptr, i32, [4 x i8], %struct.WOLFSSL_CIPHER, ptr, %struct.Ciphers, %struct.Ciphers, [8 x i8], %struct.Buffers, ptr, ptr, %struct.WOLFSSL_ALERT_HISTORY, %struct.WOLFSSL_ALERT, i32, i32, i32, i32, i32, i32, i32, i16, [2 x i8], i32, i8, %struct.RecordLayerHeader, %struct.MsgsReceived, %struct.ProtocolVersion, %struct.ProtocolVersion, %struct.CipherSpecs, [2 x i8], %struct.Keys, %struct.Options, ptr, i8, i8, i16, [10 x i16], i8, i8, i16, i16, [38 x i8], i32, i32, [4 x i8], ptr, i8, i8, [6 x i8], ptr, ptr, i16, i8, i8, i32, i8, [3 x i8], i32, %struct.OneTimeAuth, ptr }>
%struct.WOLFSSL_CIPHER = type { i8, i8, ptr }
%struct.Ciphers = type { ptr, ptr, ptr, ptr, i8, i8 }
%struct.Buffers = type { %struct.bufferStatic, %struct.bufferStatic, %struct.WOLFSSL_BUFFER_INFO, %struct.WOLFSSL_BUFFER_INFO, %struct.WOLFSSL_BUFFER_INFO, %struct.WOLFSSL_BUFFER_INFO, i32, i32, i8, i8, i8, i8, %struct.WOLFSSL_BUFFER_INFO, %struct.WOLFSSL_BUFFER_INFO, %struct.WOLFSSL_BUFFER_INFO, %struct.WOLFSSL_BUFFER_INFO, ptr, ptr, ptr, i8, i8, i32, i32, ptr, i32, [1 x ptr] }
%struct.bufferStatic = type { [5 x i8], ptr, i32, i32, i32, i8, i8 }
%struct.WOLFSSL_ALERT_HISTORY = type { %struct.WOLFSSL_ALERT, %struct.WOLFSSL_ALERT }
%struct.WOLFSSL_ALERT = type { i32, i32 }
%struct.RecordLayerHeader = type { i8, i8, i8, [2 x i8] }
%struct.MsgsReceived = type { i32 }
%struct.ProtocolVersion = type { i8, i8 }
%struct.CipherSpecs = type { i16, i16, i16, i16, i8, i8, i8, i8, i8, i8, i8, i8 }
%struct.Keys = type { [64 x i8], [64 x i8], [32 x i8], [32 x i8], [16 x i8], [16 x i8], [8 x i8], [12 x i8], [12 x i8], i32, i32, i32, i32, i32, i32, i8, i8, i8, i8 }
%struct.Options = type { i64, i64, i8, i8, i8, i8, i8, i8, i8, i8, i8, i8, i8, i8, i8, i8, i8, i8, i8, i8, i8, i8, i8, i16, i16, i16, i16, i16, i8 }
%struct.OneTimeAuth = type { ptr, i8 }

; Function Attrs: nounwind uwtable
define i32 @wolfSSL_GetVersion(ptr noundef %0) #0 {
  %2 = alloca i32, align 4
  %3 = alloca ptr, align 8
  store ptr %0, ptr %3, align 8, !tbaa !61
  %4 = load ptr, ptr %3, align 8, !tbaa !61
  %5 = icmp eq ptr %4, null
  br i1 %5, label %6, label %7

6:                                                ; preds = %1
  store i32 -173, ptr %2, align 4
  br label %28

7:                                                ; preds = %1
  %8 = load ptr, ptr %3, align 8, !tbaa !61
  %9 = getelementptr inbounds nuw %struct.WOLFSSL, ptr %8, i32 0, i32 44
  %10 = getelementptr inbounds nuw %struct.ProtocolVersion, ptr %9, i32 0, i32 0
  %11 = load i8, ptr %10, align 2, !tbaa !196
  %12 = zext i8 %11 to i32
  %13 = icmp eq i32 %12, 3
  br i1 %13, label %14, label %27

14:                                               ; preds = %7
  %15 = load ptr, ptr %3, align 8, !tbaa !61
  %16 = getelementptr inbounds nuw %struct.WOLFSSL, ptr %15, i32 0, i32 44
  %17 = getelementptr inbounds nuw %struct.ProtocolVersion, ptr %16, i32 0, i32 1
  %18 = load i8, ptr %17, align 1, !tbaa !197
  %19 = zext i8 %18 to i32
  switch i32 %19, label %25 [
    i32 0, label %20
    i32 1, label %21
    i32 2, label %22
    i32 3, label %23
    i32 4, label %24
  ]

20:                                               ; preds = %14
  store i32 0, ptr %2, align 4
  br label %28

21:                                               ; preds = %14
  store i32 1, ptr %2, align 4
  br label %28

22:                                               ; preds = %14
  store i32 2, ptr %2, align 4
  br label %28

23:                                               ; preds = %14
  store i32 3, ptr %2, align 4
  br label %28

24:                                               ; preds = %14
  store i32 4, ptr %2, align 4
  br label %28

25:                                               ; preds = %14
  br label %26

26:                                               ; preds = %25
  br label %27

27:                                               ; preds = %26, %7
  store i32 -326, ptr %2, align 4
  br label %28

28:                                               ; preds = %27, %24, %23, %22, %21, %20, %6
  %29 = load i32, ptr %2, align 4
  ret i32 %29
}