; Function Attrs: mustprogress nofree norecurse nosync nounwind willreturn memory(argmem: read) uwtable
define range(i32 -326, 5) i32 @wolfSSL_GetVersion(ptr noundef readonly captures(address_is_null) %0) local_unnamed_addr #9 {
  %2 = icmp eq ptr %0, null
  br i1 %2, label %switch.lookup, label %3

3:                                                ; preds = %1
  %4 = getelementptr inbounds nuw i8, ptr %0, i64 710
  %5 = load i8, ptr %4, align 2, !tbaa !173
  %6 = icmp eq i8 %5, 3
  br i1 %6, label %7, label %switch.lookup

7:                                                ; preds = %3
  %8 = getelementptr inbounds nuw i8, ptr %0, i64 711
  %9 = load i8, ptr %8, align 1, !tbaa !174
  %10 = icmp ult i8 %9, 5
  %switch.idx.cast = zext i8 %9 to i32
  %spec.select = select i1 %10, i32 %switch.idx.cast, i32 -326
  br label %switch.lookup

switch.lookup:                                    ; preds = %7, %3, %1
  %.0 = phi i32 [ -173, %1 ], [ -326, %3 ], [ %spec.select, %7 ]
  ret i32 %.0
}